target datalayout = "e-m:e-p270:32:32-p271:32:32-p272:64:64-i64:64-i128:128-f80:128-n8:16:32:64-S128"
target triple = "x86_64-pc-linux-gnu"

%struct.AVFilterContext = type { ptr, ptr, ptr, ptr, ptr, i32, ptr, ptr, i32, ptr, ptr, i32, i32, ptr, ptr, ptr, ptr, i32, ptr, i32, i32 }
%struct.AddROIContext = type { ptr, [4 x ptr], [4 x ptr], [4 x i32], %struct.AVRational, i32 }
%struct.AVRational = type { i32, i32 }
%struct.AVFilterLink = type { ptr, ptr, ptr, ptr, i32, i32, i32, i32, %struct.AVRational, i32, i32, i32, %struct.AVChannelLayout, %struct.AVRational, ptr, i32, %struct.AVFilterFormatsConfig, %struct.AVFilterFormatsConfig }
%struct.AVChannelLayout = type { i32, i32, %union.anon.1, ptr }
%union.anon.1 = type { i64 }
%struct.AVFilterFormatsConfig = type { ptr, ptr, ptr, ptr, ptr }

@.str.6 = private unnamed_addr constant [68 x i8] c"Calculated value %g for %c is less than zero - using zero instead.\0A\00", align 1
@addroi_param_names = internal constant [4 x i8] c"xywh", align 1
@.str.7 = private unnamed_addr constant [89 x i8] c"Calculated value %g for %c is greater than maximum allowed value %d - using %d instead.\0A\00", align 1

; Function Attrs: nounwind uwtable
define internal i32 @addroi_config_input(ptr noundef %0) #1 {
  %2 = alloca ptr, align 8
  %3 = alloca ptr, align 8
  %4 = alloca ptr, align 8
  %5 = alloca i32, align 4
  %6 = alloca [2 x double], align 16
  %7 = alloca double, align 8
  %8 = alloca i32, align 4
  store ptr %0, ptr %2, align 8, !tbaa !32
  call void @llvm.lifetime.start.p0(i64 8, ptr %3) #6
  %9 = load ptr, ptr %2, align 8, !tbaa !32
  %10 = getelementptr inbounds nuw %struct.AVFilterLink, ptr %9, i32 0, i32 2
  %11 = load ptr, ptr %10, align 8, !tbaa !36
  store ptr %11, ptr %3, align 8, !tbaa !4
  call void @llvm.lifetime.start.p0(i64 8, ptr %4) #6
  %12 = load ptr, ptr %3, align 8, !tbaa !4
  %13 = getelementptr inbounds nuw %struct.AVFilterContext, ptr %12, i32 0, i32 9
  %14 = load ptr, ptr %13, align 8, !tbaa !9
  store ptr %14, ptr %4, align 8, !tbaa !22
  call void @llvm.lifetime.start.p0(i64 4, ptr %5) #6
  call void @llvm.lifetime.start.p0(i64 16, ptr %6) #6
  call void @llvm.lifetime.start.p0(i64 8, ptr %7) #6
  %15 = load ptr, ptr %2, align 8, !tbaa !32
  %16 = getelementptr inbounds nuw %struct.AVFilterLink, ptr %15, i32 0, i32 6
  %17 = load i32, ptr %16, align 8, !tbaa !69
  %18 = sitofp i32 %17 to double
  %19 = getelementptr inbounds [2 x double], ptr %6, i64 0, i64 0
  store double %18, ptr %19, align 16, !tbaa !70
  %20 = load ptr, ptr %2, align 8, !tbaa !32
  %21 = getelementptr inbounds nuw %struct.AVFilterLink, ptr %20, i32 0, i32 7
  %22 = load i32, ptr %21, align 4, !tbaa !72
  %23 = sitofp i32 %22 to double
  %24 = getelementptr inbounds [2 x double], ptr %6, i64 0, i64 1
  store double %23, ptr %24, align 8, !tbaa !70
  store i32 0, ptr %5, align 4, !tbaa !24
  br label %25

25:                                               ; preds = %101, %1
  %26 = load i32, ptr %5, align 4, !tbaa !24
  %27 = icmp slt i32 %26, 4
  br i1 %27, label %28, label %104

28:                                               ; preds = %25
  call void @llvm.lifetime.start.p0(i64 4, ptr %8) #6
  %29 = load i32, ptr %5, align 4, !tbaa !24
  switch i32 %29, label %56 [
    i32 0, label %30
    i32 1, label %34
    i32 2, label %38
    i32 3, label %47
  ]

30:                                               ; preds = %28
  %31 = load ptr, ptr %2, align 8, !tbaa !32
  %32 = getelementptr inbounds nuw %struct.AVFilterLink, ptr %31, i32 0, i32 6
  %33 = load i32, ptr %32, align 8, !tbaa !69
  store i32 %33, ptr %8, align 4, !tbaa !24
  br label %56

34:                                               ; preds = %28
  %35 = load ptr, ptr %2, align 8, !tbaa !32
  %36 = getelementptr inbounds nuw %struct.AVFilterLink, ptr %35, i32 0, i32 7
  %37 = load i32, ptr %36, align 4, !tbaa !72
  store i32 %37, ptr %8, align 4, !tbaa !24
  br label %56

38:                                               ; preds = %28
  %39 = load ptr, ptr %2, align 8, !tbaa !32
  %40 = getelementptr inbounds nuw %struct.AVFilterLink, ptr %39, i32 0, i32 6
  %41 = load i32, ptr %40, align 8, !tbaa !69
  %42 = load ptr, ptr %4, align 8, !tbaa !22
  %43 = getelementptr inbounds nuw %struct.AddROIContext, ptr %42, i32 0, i32 3
  %44 = getelementptr inbounds [4 x i32], ptr %43, i64 0, i64 0
  %45 = load i32, ptr %44, align 8, !tbaa !24
  %46 = sub nsw i32 %41, %45
  store i32 %46, ptr %8, align 4, !tbaa !24
  br label %56

47:                                               ; preds = %28
  %48 = load ptr, ptr %2, align 8, !tbaa !32
  %49 = getelementptr inbounds nuw %struct.AVFilterLink, ptr %48, i32 0, i32 7
  %50 = load i32, ptr %49, align 4, !tbaa !72
  %51 = load ptr, ptr %4, align 8, !tbaa !22
  %52 = getelementptr inbounds nuw %struct.AddROIContext, ptr %51, i32 0, i32 3
  %53 = getelementptr inbounds [4 x i32], ptr %52, i64 0, i64 1
  %54 = load i32, ptr %53, align 4, !tbaa !24
  %55 = sub nsw i32 %50, %54
  store i32 %55, ptr %8, align 4, !tbaa !24
  br label %56

56:                                               ; preds = %28, %47, %38, %34, %30
  %57 = load ptr, ptr %4, align 8, !tbaa !22
  %58 = getelementptr inbounds nuw %struct.AddROIContext, ptr %57, i32 0, i32 2
  %59 = load i32, ptr %5, align 4, !tbaa !24
  %60 = sext i32 %59 to i64
  %61 = getelementptr inbounds [4 x ptr], ptr %58, i64 0, i64 %60
  %62 = load ptr, ptr %61, align 8, !tbaa !29
  %63 = getelementptr inbounds [2 x double], ptr %6, i64 0, i64 0
  %64 = call nsz double @av_expr_eval(ptr noundef %62, ptr noundef %63, ptr noundef null)
  store double %64, ptr %7, align 8, !tbaa !70
  %65 = load double, ptr %7, align 8, !tbaa !70
  %66 = fcmp nsz olt double %65, 0.000000e+00
  br i1 %66, label %67, label %75

67:                                               ; preds = %56
  %68 = load ptr, ptr %3, align 8, !tbaa !4
  %69 = load double, ptr %7, align 8, !tbaa !70
  %70 = load i32, ptr %5, align 4, !tbaa !24
  %71 = sext i32 %70 to i64
  %72 = getelementptr inbounds [4 x i8], ptr @addroi_param_names, i64 0, i64 %71
  %73 = load i8, ptr %72, align 1, !tbaa !26
  %74 = sext i8 %73 to i32
  call void (ptr, i32, ptr, ...) @av_log(ptr noundef %68, i32 noundef 24, ptr noundef @.str.6, double noundef %69, i32 noundef %74)
  store double 0.000000e+00, ptr %7, align 8, !tbaa !70
  br label %93

75:                                               ; preds = %56
  %76 = load double, ptr %7, align 8, !tbaa !70
  %77 = load i32, ptr %8, align 4, !tbaa !24
  %78 = sitofp i32 %77 to double
  %79 = fcmp nsz ogt double %76, %78
  br i1 %79, label %80, label %92

80:                                               ; preds = %75
  %81 = load ptr, ptr %3, align 8, !tbaa !4
  %82 = load double, ptr %7, align 8, !tbaa !70
  %83 = load i32, ptr %5, align 4, !tbaa !24
  %84 = sext i32 %83 to i64
  %85 = getelementptr inbounds [4 x i8], ptr @addroi_param_names, i64 0, i64 %84
  %86 = load i8, ptr %85, align 1, !tbaa !26
  %87 = sext i8 %86 to i32
  %88 = load i32, ptr %8, align 4, !tbaa !24
  %89 = load i32, ptr %8, align 4, !tbaa !24
  call void (ptr, i32, ptr, ...) @av_log(ptr noundef %81, i32 noundef 24, ptr noundef @.str.7, double noundef %82, i32 noundef %87, i32 noundef %88, i32 noundef %89)
  %90 = load i32, ptr %8, align 4, !tbaa !24
  %91 = sitofp i32 %90 to double
  store double %91, ptr %7, align 8, !tbaa !70
  br label %92

92:                                               ; preds = %80, %75
  br label %93

93:                                               ; preds = %92, %67
  %94 = load double, ptr %7, align 8, !tbaa !70
  %95 = fptosi double %94 to i32
  %96 = load ptr, ptr %4, align 8, !tbaa !22
  %97 = getelementptr inbounds nuw %struct.AddROIContext, ptr %96, i32 0, i32 3
  %98 = load i32, ptr %5, align 4, !tbaa !24
  %99 = sext i32 %98 to i64
  %100 = getelementptr inbounds [4 x i32], ptr %97, i64 0, i64 %99
  store i32 %95, ptr %100, align 4, !tbaa !24
  call void @llvm.lifetime.end.p0(i64 4, ptr %8) #6
  br label %101

101:                                              ; preds = %93
  %102 = load i32, ptr %5, align 4, !tbaa !24
  %103 = add nsw i32 %102, 1
  store i32 %103, ptr %5, align 4, !tbaa !24
  br label %25, !llvm.loop !73

104:                                              ; preds = %25
  call void @llvm.lifetime.end.p0(i64 8, ptr %7) #6
  call void @llvm.lifetime.end.p0(i64 16, ptr %6) #6
  call void @llvm.lifetime.end.p0(i64 4, ptr %5) #6
  call void @llvm.lifetime.end.p0(i64 8, ptr %4) #6
  call void @llvm.lifetime.end.p0(i64 8, ptr %3) #6
  ret i32 0
}