; Function Attrs: nounwind uwtable
define internal noundef i32 @addroi_config_input(ptr noundef readonly captures(none) %0) #1 {
  %2 = alloca [2 x double], align 16
  %3 = getelementptr inbounds nuw i8, ptr %0, i64 16
  %4 = load ptr, ptr %3, align 8, !tbaa !29
  %5 = getelementptr inbounds nuw i8, ptr %4, i64 72
  %6 = load ptr, ptr %5, align 8, !tbaa !4
  call void @llvm.lifetime.start.p0(i64 16, ptr nonnull %2) #5
  %7 = getelementptr inbounds nuw i8, ptr %0, i64 40
  %8 = load i32, ptr %7, align 8, !tbaa !60
  %9 = sitofp i32 %8 to double
  store double %9, ptr %2, align 16, !tbaa !61
  %10 = getelementptr inbounds nuw i8, ptr %0, i64 44
  %11 = load i32, ptr %10, align 4, !tbaa !63
  %12 = sitofp i32 %11 to double
  %13 = getelementptr inbounds nuw i8, ptr %2, i64 8
  store double %12, ptr %13, align 8, !tbaa !61
  %14 = getelementptr inbounds nuw i8, ptr %6, i64 76
  %15 = getelementptr inbounds nuw i8, ptr %6, i64 72
  %16 = getelementptr inbounds nuw i8, ptr %6, i64 40
  br label %17

17:                                               ; preds = %1, %47
  %indvars.iv = phi i64 [ 0, %1 ], [ %indvars.iv.next, %47 ]
  %18 = trunc nuw nsw i64 %indvars.iv to i32
  switch i32 %18, label %default.unreachable [
    i32 0, label %19
    i32 1, label %21
    i32 2, label %23
    i32 3, label %27
  ]

19:                                               ; preds = %17
  %20 = load i32, ptr %7, align 8, !tbaa !60
  br label %31

21:                                               ; preds = %17
  %22 = load i32, ptr %10, align 4, !tbaa !63
  br label %31

23:                                               ; preds = %17
  %24 = load i32, ptr %7, align 8, !tbaa !60
  %25 = load i32, ptr %15, align 8, !tbaa !58
  %26 = sub nsw i32 %24, %25
  br label %31

27:                                               ; preds = %17
  %28 = load i32, ptr %10, align 4, !tbaa !63
  %29 = load i32, ptr %14, align 4, !tbaa !58
  %30 = sub nsw i32 %28, %29
  br label %31

default.unreachable:                              ; preds = %17
  unreachable

31:                                               ; preds = %27, %23, %21, %19
  %.1 = phi i32 [ %30, %27 ], [ %26, %23 ], [ %22, %21 ], [ %20, %19 ]
  %32 = getelementptr inbounds nuw [4 x ptr], ptr %16, i64 0, i64 %indvars.iv
  %33 = load ptr, ptr %32, align 8, !tbaa !24
  %34 = call nsz double @av_expr_eval(ptr noundef %33, ptr noundef nonnull %2, ptr noundef null) #5
  %35 = fcmp nsz olt double %34, 0.000000e+00
  br i1 %35, label %36, label %40

36:                                               ; preds = %31
  %37 = getelementptr inbounds nuw [4 x i8], ptr @addroi_param_names, i64 0, i64 %indvars.iv
  %38 = load i8, ptr %37, align 1, !tbaa !23
  %39 = sext i8 %38 to i32
  call void (ptr, i32, ptr, ...) @av_log(ptr noundef %4, i32 noundef 24, ptr noundef nonnull @.str.6, double noundef %34, i32 noundef %39) #5
  br label %47

40:                                               ; preds = %31
  %41 = sitofp i32 %.1 to double
  %42 = fcmp nsz ogt double %34, %41
  br i1 %42, label %43, label %47

43:                                               ; preds = %40
  %44 = getelementptr inbounds nuw [4 x i8], ptr @addroi_param_names, i64 0, i64 %indvars.iv
  %45 = load i8, ptr %44, align 1, !tbaa !23
  %46 = sext i8 %45 to i32
  call void (ptr, i32, ptr, ...) @av_log(ptr noundef %4, i32 noundef 24, ptr noundef nonnull @.str.7, double noundef %34, i32 noundef %46, i32 noundef %.1, i32 noundef %.1) #5
  br label %47

47:                                               ; preds = %40, %43, %36
  %.029 = phi nsz double [ 0.000000e+00, %36 ], [ %41, %43 ], [ %34, %40 ]
  %48 = fptosi double %.029 to i32
  %49 = getelementptr inbounds nuw [4 x i32], ptr %15, i64 0, i64 %indvars.iv
  store i32 %48, ptr %49, align 4, !tbaa !58
  %indvars.iv.next = add nuw nsw i64 %indvars.iv, 1
  %exitcond.not = icmp eq i64 %indvars.iv.next, 4
  br i1 %exitcond.not, label %50, label %17, !llvm.loop !64

50:                                               ; preds = %47
  call void @llvm.lifetime.end.p0(i64 16, ptr nonnull %2) #5
  ret i32 0
}